target datalayout = "e-m:e-p270:32:32-p271:32:32-p272:64:64-i64:64-i128:128-f80:128-n8:16:32:64-S128"
target triple = "x86_64-pc-linux-gnu"

%struct.gf_s = type { [8 x i64] }

; Function Attrs: inlinehint nounwind uwtable
define internal { i64, i64 } @widemul(i64 noundef %0, i64 noundef %1) #2 {
  %3 = alloca i128, align 16
  %4 = alloca i64, align 8
  %5 = alloca i64, align 8
  store i64 %0, ptr %4, align 8, !tbaa !12
  store i64 %1, ptr %5, align 8, !tbaa !12
  %6 = load i64, ptr %4, align 8, !tbaa !12
  %7 = zext i64 %6 to i128
  %8 = load i64, ptr %5, align 8, !tbaa !12
  %9 = zext i64 %8 to i128
  %10 = mul i128 %7, %9
  store i128 %10, ptr %3, align 16
  %11 = load { i64, i64 }, ptr %3, align 16
  ret { i64, i64 } %11
}

; Function Attrs: nounwind uwtable
define void @ossl_gf_mul(ptr noalias noundef %0, ptr noundef %1, ptr noundef %2) #0 {
  %4 = alloca ptr, align 8
  %5 = alloca ptr, align 8
  %6 = alloca ptr, align 8
  %7 = alloca ptr, align 8
  %8 = alloca ptr, align 8
  %9 = alloca ptr, align 8
  %10 = alloca i128, align 16
  %11 = alloca i128, align 16
  %12 = alloca i128, align 16
  %13 = alloca i64, align 8
  %14 = alloca [4 x i64], align 16
  %15 = alloca [4 x i64], align 16
  %16 = alloca [4 x i64], align 16
  %17 = alloca i32, align 4
  %18 = alloca i32, align 4
  %19 = alloca i128, align 16
  %20 = alloca i128, align 16
  %21 = alloca i128, align 16
  %22 = alloca i128, align 16
  %23 = alloca i128, align 16
  %24 = alloca i128, align 16
  store ptr %0, ptr %4, align 8, !tbaa !3
  store ptr %1, ptr %5, align 8, !tbaa !3
  store ptr %2, ptr %6, align 8, !tbaa !3
  call void @llvm.lifetime.start.p0(i64 8, ptr %7) #3
  %25 = load ptr, ptr %5, align 8, !tbaa !3
  %26 = getelementptr inbounds nuw %struct.gf_s, ptr %25, i32 0, i32 0
  %27 = getelementptr inbounds [8 x i64], ptr %26, i64 0, i64 0
  store ptr %27, ptr %7, align 8, !tbaa !8
  call void @llvm.lifetime.start.p0(i64 8, ptr %8) #3
  %28 = load ptr, ptr %6, align 8, !tbaa !3
  %29 = getelementptr inbounds nuw %struct.gf_s, ptr %28, i32 0, i32 0
  %30 = getelementptr inbounds [8 x i64], ptr %29, i64 0, i64 0
  store ptr %30, ptr %8, align 8, !tbaa !8
  call void @llvm.lifetime.start.p0(i64 8, ptr %9) #3
  %31 = load ptr, ptr %4, align 8, !tbaa !3
  %32 = getelementptr inbounds nuw %struct.gf_s, ptr %31, i32 0, i32 0
  %33 = getelementptr inbounds [8 x i64], ptr %32, i64 0, i64 0
  store ptr %33, ptr %9, align 8, !tbaa !8
  call void @llvm.lifetime.start.p0(i64 16, ptr %10) #3
  store i128 0, ptr %10, align 16, !tbaa !10
  call void @llvm.lifetime.start.p0(i64 16, ptr %11) #3
  store i128 0, ptr %11, align 16, !tbaa !10
  call void @llvm.lifetime.start.p0(i64 16, ptr %12) #3
  call void @llvm.lifetime.start.p0(i64 8, ptr %13) #3
  store i64 72057594037927935, ptr %13, align 8, !tbaa !12
  call void @llvm.lifetime.start.p0(i64 32, ptr %14) #3
  call void @llvm.lifetime.start.p0(i64 32, ptr %15) #3
  call void @llvm.lifetime.start.p0(i64 32, ptr %16) #3
  call void @llvm.lifetime.start.p0(i64 4, ptr %17) #3
  call void @llvm.lifetime.start.p0(i64 4, ptr %18) #3
  store i32 0, ptr %17, align 4, !tbaa !14
  br label %34

34:                                               ; preds = %82, %3
  %35 = load i32, ptr %17, align 4, !tbaa !14
  %36 = icmp ult i32 %35, 4
  br i1 %36, label %37, label %85

37:                                               ; preds = %34
  %38 = load ptr, ptr %7, align 8, !tbaa !8
  %39 = load i32, ptr %17, align 4, !tbaa !14
  %40 = zext i32 %39 to i64
  %41 = getelementptr inbounds nuw i64, ptr %38, i64 %40
  %42 = load i64, ptr %41, align 8, !tbaa !12
  %43 = load ptr, ptr %7, align 8, !tbaa !8
  %44 = load i32, ptr %17, align 4, !tbaa !14
  %45 = add i32 %44, 4
  %46 = zext i32 %45 to i64
  %47 = getelementptr inbounds nuw i64, ptr %43, i64 %46
  %48 = load i64, ptr %47, align 8, !tbaa !12
  %49 = add i64 %42, %48
  %50 = load i32, ptr %17, align 4, !tbaa !14
  %51 = zext i32 %50 to i64
  %52 = getelementptr inbounds nuw [4 x i64], ptr %14, i64 0, i64 %51
  store i64 %49, ptr %52, align 8, !tbaa !12
  %53 = load ptr, ptr %8, align 8, !tbaa !8
  %54 = load i32, ptr %17, align 4, !tbaa !14
  %55 = zext i32 %54 to i64
  %56 = getelementptr inbounds nuw i64, ptr %53, i64 %55
  %57 = load i64, ptr %56, align 8, !tbaa !12
  %58 = load ptr, ptr %8, align 8, !tbaa !8
  %59 = load i32, ptr %17, align 4, !tbaa !14
  %60 = add i32 %59, 4
  %61 = zext i32 %60 to i64
  %62 = getelementptr inbounds nuw i64, ptr %58, i64 %61
  %63 = load i64, ptr %62, align 8, !tbaa !12
  %64 = add i64 %57, %63
  %65 = load i32, ptr %17, align 4, !tbaa !14
  %66 = zext i32 %65 to i64
  %67 = getelementptr inbounds nuw [4 x i64], ptr %15, i64 0, i64 %66
  store i64 %64, ptr %67, align 8, !tbaa !12
  %68 = load i32, ptr %17, align 4, !tbaa !14
  %69 = zext i32 %68 to i64
  %70 = getelementptr inbounds nuw [4 x i64], ptr %15, i64 0, i64 %69
  %71 = load i64, ptr %70, align 8, !tbaa !12
  %72 = load ptr, ptr %8, align 8, !tbaa !8
  %73 = load i32, ptr %17, align 4, !tbaa !14
  %74 = add i32 %73, 4
  %75 = zext i32 %74 to i64
  %76 = getelementptr inbounds nuw i64, ptr %72, i64 %75
  %77 = load i64, ptr %76, align 8, !tbaa !12
  %78 = add i64 %71, %77
  %79 = load i32, ptr %17, align 4, !tbaa !14
  %80 = zext i32 %79 to i64
  %81 = getelementptr inbounds nuw [4 x i64], ptr %16, i64 0, i64 %80
  store i64 %78, ptr %81, align 8, !tbaa !12
  br label %82

82:                                               ; preds = %37
  %83 = load i32, ptr %17, align 4, !tbaa !14
  %84 = add i32 %83, 1
  store i32 %84, ptr %17, align 4, !tbaa !14
  br label %34, !llvm.loop !16

85:                                               ; preds = %34
  store i32 0, ptr %17, align 4, !tbaa !14
  br label %86

86:                                               ; preds = %255, %85
  %87 = load i32, ptr %17, align 4, !tbaa !14
  %88 = icmp ult i32 %87, 4
  br i1 %88, label %89, label %258

89:                                               ; preds = %86
  store i128 0, ptr %12, align 16, !tbaa !10
  store i32 0, ptr %18, align 4, !tbaa !14
  br label %90

90:                                               ; preds = %155, %89
  %91 = load i32, ptr %18, align 4, !tbaa !14
  %92 = load i32, ptr %17, align 4, !tbaa !14
  %93 = icmp ule i32 %91, %92
  br i1 %93, label %94, label %158

94:                                               ; preds = %90
  %95 = load ptr, ptr %7, align 8, !tbaa !8
  %96 = load i32, ptr %18, align 4, !tbaa !14
  %97 = zext i32 %96 to i64
  %98 = getelementptr inbounds nuw i64, ptr %95, i64 %97
  %99 = load i64, ptr %98, align 8, !tbaa !12
  %100 = load ptr, ptr %8, align 8, !tbaa !8
  %101 = load i32, ptr %17, align 4, !tbaa !14
  %102 = load i32, ptr %18, align 4, !tbaa !14
  %103 = sub i32 %101, %102
  %104 = zext i32 %103 to i64
  %105 = getelementptr inbounds nuw i64, ptr %100, i64 %104
  %106 = load i64, ptr %105, align 8, !tbaa !12
  %107 = call { i64, i64 } @widemul(i64 noundef %99, i64 noundef %106)
  %108 = getelementptr inbounds nuw { i64, i64 }, ptr %19, i32 0, i32 0
  %109 = extractvalue { i64, i64 } %107, 0
  store i64 %109, ptr %108, align 16
  %110 = getelementptr inbounds nuw { i64, i64 }, ptr %19, i32 0, i32 1
  %111 = extractvalue { i64, i64 } %107, 1
  store i64 %111, ptr %110, align 8
  %112 = load i128, ptr %19, align 16, !tbaa !10
  %113 = load i128, ptr %12, align 16, !tbaa !10
  %114 = add i128 %113, %112
  store i128 %114, ptr %12, align 16, !tbaa !10
  %115 = load i32, ptr %18, align 4, !tbaa !14
  %116 = zext i32 %115 to i64
  %117 = getelementptr inbounds nuw [4 x i64], ptr %14, i64 0, i64 %116
  %118 = load i64, ptr %117, align 8, !tbaa !12
  %119 = load i32, ptr %17, align 4, !tbaa !14
  %120 = load i32, ptr %18, align 4, !tbaa !14
  %121 = sub i32 %119, %120
  %122 = zext i32 %121 to i64
  %123 = getelementptr inbounds nuw [4 x i64], ptr %15, i64 0, i64 %122
  %124 = load i64, ptr %123, align 8, !tbaa !12
  %125 = call { i64, i64 } @widemul(i64 noundef %118, i64 noundef %124)
  %126 = getelementptr inbounds nuw { i64, i64 }, ptr %20, i32 0, i32 0
  %127 = extractvalue { i64, i64 } %125, 0
  store i64 %127, ptr %126, align 16
  %128 = getelementptr inbounds nuw { i64, i64 }, ptr %20, i32 0, i32 1
  %129 = extractvalue { i64, i64 } %125, 1
  store i64 %129, ptr %128, align 8
  %130 = load i128, ptr %20, align 16, !tbaa !10
  %131 = load i128, ptr %11, align 16, !tbaa !10
  %132 = add i128 %131, %130
  store i128 %132, ptr %11, align 16, !tbaa !10
  %133 = load ptr, ptr %7, align 8, !tbaa !8
  %134 = load i32, ptr %18, align 4, !tbaa !14
  %135 = add i32 %134, 4
  %136 = zext i32 %135 to i64
  %137 = getelementptr inbounds nuw i64, ptr %133, i64 %136
  %138 = load i64, ptr %137, align 8, !tbaa !12
  %139 = load ptr, ptr %8, align 8, !tbaa !8
  %140 = load i32, ptr %17, align 4, !tbaa !14
  %141 = load i32, ptr %18, align 4, !tbaa !14
  %142 = sub i32 %140, %141
  %143 = add i32 %142, 4
  %144 = zext i32 %143 to i64
  %145 = getelementptr inbounds nuw i64, ptr %139, i64 %144
  %146 = load i64, ptr %145, align 8, !tbaa !12
  %147 = call { i64, i64 } @widemul(i64 noundef %138, i64 noundef %146)
  %148 = getelementptr inbounds nuw { i64, i64 }, ptr %21, i32 0, i32 0
  %149 = extractvalue { i64, i64 } %147, 0
  store i64 %149, ptr %148, align 16
  %150 = getelementptr inbounds nuw { i64, i64 }, ptr %21, i32 0, i32 1
  %151 = extractvalue { i64, i64 } %147, 1
  store i64 %151, ptr %150, align 8
  %152 = load i128, ptr %21, align 16, !tbaa !10
  %153 = load i128, ptr %10, align 16, !tbaa !10
  %154 = add i128 %153, %152
  store i128 %154, ptr %10, align 16, !tbaa !10
  br label %155

155:                                              ; preds = %94
  %156 = load i32, ptr %18, align 4, !tbaa !14
  %157 = add i32 %156, 1
  store i32 %157, ptr %18, align 4, !tbaa !14
  br label %90, !llvm.loop !18

158:                                              ; preds = %90
  br label %159

159:                                              ; preds = %224, %158
  %160 = load i32, ptr %18, align 4, !tbaa !14
  %161 = icmp ult i32 %160, 4
  br i1 %161, label %162, label %227

162:                                              ; preds = %159
  %163 = load ptr, ptr %7, align 8, !tbaa !8
  %164 = load i32, ptr %18, align 4, !tbaa !14
  %165 = zext i32 %164 to i64
  %166 = getelementptr inbounds nuw i64, ptr %163, i64 %165
  %167 = load i64, ptr %166, align 8, !tbaa !12
  %168 = load ptr, ptr %8, align 8, !tbaa !8
  %169 = load i32, ptr %17, align 4, !tbaa !14
  %170 = add i32 %169, 8
  %171 = load i32, ptr %18, align 4, !tbaa !14
  %172 = sub i32 %170, %171
  %173 = zext i32 %172 to i64
  %174 = getelementptr inbounds nuw i64, ptr %168, i64 %173
  %175 = load i64, ptr %174, align 8, !tbaa !12
  %176 = call { i64, i64 } @widemul(i64 noundef %167, i64 noundef %175)
  %177 = getelementptr inbounds nuw { i64, i64 }, ptr %22, i32 0, i32 0
  %178 = extractvalue { i64, i64 } %176, 0
  store i64 %178, ptr %177, align 16
  %179 = getelementptr inbounds nuw { i64, i64 }, ptr %22, i32 0, i32 1
  %180 = extractvalue { i64, i64 } %176, 1
  store i64 %180, ptr %179, align 8
  %181 = load i128, ptr %22, align 16, !tbaa !10
  %182 = load i128, ptr %12, align 16, !tbaa !10
  %183 = add i128 %182, %181
  store i128 %183, ptr %12, align 16, !tbaa !10
  %184 = load i32, ptr %18, align 4, !tbaa !14
  %185 = zext i32 %184 to i64
  %186 = getelementptr inbounds nuw [4 x i64], ptr %14, i64 0, i64 %185
  %187 = load i64, ptr %186, align 8, !tbaa !12
  %188 = load i32, ptr %17, align 4, !tbaa !14
  %189 = add i32 %188, 4
  %190 = load i32, ptr %18, align 4, !tbaa !14
  %191 = sub i32 %189, %190
  %192 = zext i32 %191 to i64
  %193 = getelementptr inbounds nuw [4 x i64], ptr %16, i64 0, i64 %192
  %194 = load i64, ptr %193, align 8, !tbaa !12
  %195 = call { i64, i64 } @widemul(i64 noundef %187, i64 noundef %194)
  %196 = getelementptr inbounds nuw { i64, i64 }, ptr %23, i32 0, i32 0
  %197 = extractvalue { i64, i64 } %195, 0
  store i64 %197, ptr %196, align 16
  %198 = getelementptr inbounds nuw { i64, i64 }, ptr %23, i32 0, i32 1
  %199 = extractvalue { i64, i64 } %195, 1
  store i64 %199, ptr %198, align 8
  %200 = load i128, ptr %23, align 16, !tbaa !10
  %201 = load i128, ptr %11, align 16, !tbaa !10
  %202 = add i128 %201, %200
  store i128 %202, ptr %11, align 16, !tbaa !10
  %203 = load ptr, ptr %7, align 8, !tbaa !8
  %204 = load i32, ptr %18, align 4, !tbaa !14
  %205 = add i32 %204, 4
  %206 = zext i32 %205 to i64
  %207 = getelementptr inbounds nuw i64, ptr %203, i64 %206
  %208 = load i64, ptr %207, align 8, !tbaa !12
  %209 = load i32, ptr %17, align 4, !tbaa !14
  %210 = add i32 %209, 4
  %211 = load i32, ptr %18, align 4, !tbaa !14
  %212 = sub i32 %210, %211
  %213 = zext i32 %212 to i64
  %214 = getelementptr inbounds nuw [4 x i64], ptr %15, i64 0, i64 %213
  %215 = load i64, ptr %214, align 8, !tbaa !12
  %216 = call { i64, i64 } @widemul(i64 noundef %208, i64 noundef %215)
  %217 = getelementptr inbounds nuw { i64, i64 }, ptr %24, i32 0, i32 0
  %218 = extractvalue { i64, i64 } %216, 0
  store i64 %218, ptr %217, align 16
  %219 = getelementptr inbounds nuw { i64, i64 }, ptr %24, i32 0, i32 1
  %220 = extractvalue { i64, i64 } %216, 1
  store i64 %220, ptr %219, align 8
  %221 = load i128, ptr %24, align 16, !tbaa !10
  %222 = load i128, ptr %10, align 16, !tbaa !10
  %223 = add i128 %222, %221
  store i128 %223, ptr %10, align 16, !tbaa !10
  br label %224

224:                                              ; preds = %162
  %225 = load i32, ptr %18, align 4, !tbaa !14
  %226 = add i32 %225, 1
  store i32 %226, ptr %18, align 4, !tbaa !14
  br label %159, !llvm.loop !19

227:                                              ; preds = %159
  %228 = load i128, ptr %12, align 16, !tbaa !10
  %229 = load i128, ptr %11, align 16, !tbaa !10
  %230 = sub i128 %229, %228
  store i128 %230, ptr %11, align 16, !tbaa !10
  %231 = load i128, ptr %12, align 16, !tbaa !10
  %232 = load i128, ptr %10, align 16, !tbaa !10
  %233 = add i128 %232, %231
  store i128 %233, ptr %10, align 16, !tbaa !10
  %234 = load i128, ptr %10, align 16, !tbaa !10
  %235 = trunc i128 %234 to i64
  %236 = load i64, ptr %13, align 8, !tbaa !12
  %237 = and i64 %235, %236
  %238 = load ptr, ptr %9, align 8, !tbaa !8
  %239 = load i32, ptr %17, align 4, !tbaa !14
  %240 = zext i32 %239 to i64
  %241 = getelementptr inbounds nuw i64, ptr %238, i64 %240
  store i64 %237, ptr %241, align 8, !tbaa !12
  %242 = load i128, ptr %11, align 16, !tbaa !10
  %243 = trunc i128 %242 to i64
  %244 = load i64, ptr %13, align 8, !tbaa !12
  %245 = and i64 %243, %244
  %246 = load ptr, ptr %9, align 8, !tbaa !8
  %247 = load i32, ptr %17, align 4, !tbaa !14
  %248 = add i32 %247, 4
  %249 = zext i32 %248 to i64
  %250 = getelementptr inbounds nuw i64, ptr %246, i64 %249
  store i64 %245, ptr %250, align 8, !tbaa !12
  %251 = load i128, ptr %10, align 16, !tbaa !10
  %252 = lshr i128 %251, 56
  store i128 %252, ptr %10, align 16, !tbaa !10
  %253 = load i128, ptr %11, align 16, !tbaa !10
  %254 = lshr i128 %253, 56
  store i128 %254, ptr %11, align 16, !tbaa !10
  br label %255

255:                                              ; preds = %227
  %256 = load i32, ptr %17, align 4, !tbaa !14
  %257 = add i32 %256, 1
  store i32 %257, ptr %17, align 4, !tbaa !14
  br label %86, !llvm.loop !20

258:                                              ; preds = %86
  %259 = load i128, ptr %11, align 16, !tbaa !10
  %260 = load i128, ptr %10, align 16, !tbaa !10
  %261 = add i128 %260, %259
  store i128 %261, ptr %10, align 16, !tbaa !10
  %262 = load ptr, ptr %9, align 8, !tbaa !8
  %263 = getelementptr inbounds i64, ptr %262, i64 4
  %264 = load i64, ptr %263, align 8, !tbaa !12
  %265 = zext i64 %264 to i128
  %266 = load i128, ptr %10, align 16, !tbaa !10
  %267 = add i128 %266, %265
  store i128 %267, ptr %10, align 16, !tbaa !10
  %268 = load ptr, ptr %9, align 8, !tbaa !8
  %269 = getelementptr inbounds i64, ptr %268, i64 0
  %270 = load i64, ptr %269, align 8, !tbaa !12
  %271 = zext i64 %270 to i128
  %272 = load i128, ptr %11, align 16, !tbaa !10
  %273 = add i128 %272, %271
  store i128 %273, ptr %11, align 16, !tbaa !10
  %274 = load i128, ptr %10, align 16, !tbaa !10
  %275 = trunc i128 %274 to i64
  %276 = load i64, ptr %13, align 8, !tbaa !12
  %277 = and i64 %275, %276
  %278 = load ptr, ptr %9, align 8, !tbaa !8
  %279 = getelementptr inbounds i64, ptr %278, i64 4
  store i64 %277, ptr %279, align 8, !tbaa !12
  %280 = load i128, ptr %11, align 16, !tbaa !10
  %281 = trunc i128 %280 to i64
  %282 = load i64, ptr %13, align 8, !tbaa !12
  %283 = and i64 %281, %282
  %284 = load ptr, ptr %9, align 8, !tbaa !8
  %285 = getelementptr inbounds i64, ptr %284, i64 0
  store i64 %283, ptr %285, align 8, !tbaa !12
  %286 = load i128, ptr %10, align 16, !tbaa !10
  %287 = lshr i128 %286, 56
  store i128 %287, ptr %10, align 16, !tbaa !10
  %288 = load i128, ptr %11, align 16, !tbaa !10
  %289 = lshr i128 %288, 56
  store i128 %289, ptr %11, align 16, !tbaa !10
  %290 = load i128, ptr %10, align 16, !tbaa !10
  %291 = trunc i128 %290 to i64
  %292 = load ptr, ptr %9, align 8, !tbaa !8
  %293 = getelementptr inbounds i64, ptr %292, i64 5
  %294 = load i64, ptr %293, align 8, !tbaa !12
  %295 = add i64 %294, %291
  store i64 %295, ptr %293, align 8, !tbaa !12
  %296 = load i128, ptr %11, align 16, !tbaa !10
  %297 = trunc i128 %296 to i64
  %298 = load ptr, ptr %9, align 8, !tbaa !8
  %299 = getelementptr inbounds i64, ptr %298, i64 1
  %300 = load i64, ptr %299, align 8, !tbaa !12
  %301 = add i64 %300, %297
  store i64 %301, ptr %299, align 8, !tbaa !12
  call void @llvm.lifetime.end.p0(i64 4, ptr %18) #3
  call void @llvm.lifetime.end.p0(i64 4, ptr %17) #3
  call void @llvm.lifetime.end.p0(i64 32, ptr %16) #3
  call void @llvm.lifetime.end.p0(i64 32, ptr %15) #3
  call void @llvm.lifetime.end.p0(i64 32, ptr %14) #3
  call void @llvm.lifetime.end.p0(i64 8, ptr %13) #3
  call void @llvm.lifetime.end.p0(i64 16, ptr %12) #3
  call void @llvm.lifetime.end.p0(i64 16, ptr %11) #3
  call void @llvm.lifetime.end.p0(i64 16, ptr %10) #3
  call void @llvm.lifetime.end.p0(i64 8, ptr %9) #3
  call void @llvm.lifetime.end.p0(i64 8, ptr %8) #3
  call void @llvm.lifetime.end.p0(i64 8, ptr %7) #3
  ret void
}