; Function Attrs: nofree norecurse nosync nounwind memory(argmem: readwrite) uwtable
define void @ossl_gf_mul(ptr noalias noundef captures(none) %0, ptr noundef readonly captures(none) %1, ptr noundef readonly captures(none) %2) local_unnamed_addr #0 {
  %4 = alloca [4 x i64], align 16
  %5 = alloca [4 x i64], align 16
  %6 = alloca [4 x i64], align 16
  call void @llvm.lifetime.start.p0(i64 32, ptr nonnull %4) #2
  call void @llvm.lifetime.start.p0(i64 32, ptr nonnull %5) #2
  call void @llvm.lifetime.start.p0(i64 32, ptr nonnull %6) #2
  br label %7

7:                                                ; preds = %3, %7
  %indvars.iv = phi i64 [ 0, %3 ], [ %indvars.iv.next, %7 ]
  %8 = getelementptr inbounds nuw i64, ptr %1, i64 %indvars.iv
  %9 = load i64, ptr %8, align 8, !tbaa !3
  %10 = or disjoint i64 %indvars.iv, 4
  %11 = getelementptr inbounds nuw i64, ptr %1, i64 %10
  %12 = load i64, ptr %11, align 8, !tbaa !3
  %13 = add i64 %12, %9
  %14 = getelementptr inbounds nuw [4 x i64], ptr %4, i64 0, i64 %indvars.iv
  store i64 %13, ptr %14, align 8, !tbaa !3
  %15 = getelementptr inbounds nuw i64, ptr %2, i64 %indvars.iv
  %16 = load i64, ptr %15, align 8, !tbaa !3
  %17 = getelementptr inbounds nuw i64, ptr %2, i64 %10
  %18 = load i64, ptr %17, align 8, !tbaa !3
  %19 = add i64 %18, %16
  %20 = getelementptr inbounds nuw [4 x i64], ptr %5, i64 0, i64 %indvars.iv
  store i64 %19, ptr %20, align 8, !tbaa !3
  %21 = add i64 %19, %18
  %22 = getelementptr inbounds nuw [4 x i64], ptr %6, i64 0, i64 %indvars.iv
  store i64 %21, ptr %22, align 8, !tbaa !3
  %indvars.iv.next = add nuw nsw i64 %indvars.iv, 1
  %exitcond.not = icmp eq i64 %indvars.iv.next, 4
  br i1 %exitcond.not, label %.preheader132, label %7, !llvm.loop !7

.preheader132:                                    ; preds = %7, %._crit_edge
  %indvars.iv163 = phi i64 [ %indvars.iv.next164, %._crit_edge ], [ 1, %7 ]
  %indvars.iv161 = phi i64 [ %indvars.iv.next162, %._crit_edge ], [ 0, %7 ]
  %.0149 = phi i128 [ %94, %._crit_edge ], [ 0, %7 ]
  %.098148 = phi i128 [ %95, %._crit_edge ], [ 0, %7 ]
  br label %28

.preheader:                                       ; preds = %28
  %23 = icmp samesign ult i64 %indvars.iv161, 3
  br i1 %23, label %.lr.ph, label %._crit_edge

.lr.ph:                                           ; preds = %.preheader
  %24 = or disjoint i64 %indvars.iv161, 8
  %25 = getelementptr i64, ptr %2, i64 %24
  %26 = trunc nuw i64 %indvars.iv161 to i32
  %27 = or disjoint i32 %26, 4
  br label %55

28:                                               ; preds = %.preheader132, %28
  %indvars.iv159 = phi i64 [ 0, %.preheader132 ], [ %indvars.iv.next160, %28 ]
  %.1138 = phi i128 [ %.0149, %.preheader132 ], [ %54, %28 ]
  %.199137 = phi i128 [ %.098148, %.preheader132 ], [ %45, %28 ]
  %.0101136 = phi i128 [ 0, %.preheader132 ], [ %37, %28 ]
  %29 = getelementptr inbounds nuw i64, ptr %1, i64 %indvars.iv159
  %30 = load i64, ptr %29, align 8, !tbaa !3
  %31 = sub nuw nsw i64 %indvars.iv161, %indvars.iv159
  %32 = getelementptr inbounds nuw i64, ptr %2, i64 %31
  %33 = load i64, ptr %32, align 8, !tbaa !3
  %34 = zext i64 %30 to i128
  %35 = zext i64 %33 to i128
  %36 = mul nuw i128 %35, %34
  %37 = add i128 %36, %.0101136
  %38 = getelementptr inbounds nuw [4 x i64], ptr %4, i64 0, i64 %indvars.iv159
  %39 = load i64, ptr %38, align 8, !tbaa !3
  %40 = getelementptr inbounds nuw [4 x i64], ptr %5, i64 0, i64 %31
  %41 = load i64, ptr %40, align 8, !tbaa !3
  %42 = zext i64 %39 to i128
  %43 = zext i64 %41 to i128
  %44 = mul nuw i128 %43, %42
  %45 = add i128 %44, %.199137
  %46 = getelementptr inbounds nuw i8, ptr %29, i64 32
  %47 = load i64, ptr %46, align 8, !tbaa !3
  %48 = or disjoint i64 %31, 4
  %49 = getelementptr inbounds nuw i64, ptr %2, i64 %48
  %50 = load i64, ptr %49, align 8, !tbaa !3
  %51 = zext i64 %47 to i128
  %52 = zext i64 %50 to i128
  %53 = mul nuw i128 %52, %51
  %54 = add i128 %53, %.1138
  %indvars.iv.next160 = add nuw nsw i64 %indvars.iv159, 1
  %exitcond168.not = icmp eq i64 %indvars.iv.next160, %indvars.iv163
  br i1 %exitcond168.not, label %.preheader, label %28, !llvm.loop !9

55:                                               ; preds = %.lr.ph, %55
  %indvars.iv172 = phi i64 [ %indvars.iv163, %.lr.ph ], [ %indvars.iv.next173, %55 ]
  %indvars.iv169 = phi i64 [ %indvars.iv161, %.lr.ph ], [ %indvars.iv.next170, %55 ]
  %.2143 = phi i128 [ %54, %.lr.ph ], [ %84, %55 ]
  %.2100142 = phi i128 [ %45, %.lr.ph ], [ %75, %55 ]
  %.1102141 = phi i128 [ %37, %.lr.ph ], [ %65, %55 ]
  %56 = trunc nuw nsw i64 %indvars.iv169 to i32
  %.1106.neg144 = xor i32 %56, -1
  %57 = getelementptr inbounds nuw i64, ptr %1, i64 %indvars.iv172
  %58 = load i64, ptr %57, align 8, !tbaa !3
  %59 = sext i32 %.1106.neg144 to i64
  %60 = getelementptr i64, ptr %25, i64 %59
  %61 = load i64, ptr %60, align 8, !tbaa !3
  %62 = zext i64 %58 to i128
  %63 = zext i64 %61 to i128
  %64 = mul nuw i128 %63, %62
  %65 = add i128 %64, %.1102141
  %66 = getelementptr inbounds nuw [4 x i64], ptr %4, i64 0, i64 %indvars.iv172
  %67 = load i64, ptr %66, align 8, !tbaa !3
  %68 = add nsw i32 %27, %.1106.neg144
  %69 = zext nneg i32 %68 to i64
  %70 = getelementptr inbounds nuw [4 x i64], ptr %6, i64 0, i64 %69
  %71 = load i64, ptr %70, align 8, !tbaa !3
  %72 = zext i64 %67 to i128
  %73 = zext i64 %71 to i128
  %74 = mul nuw i128 %73, %72
  %75 = add i128 %74, %.2100142
  %76 = or disjoint i64 %indvars.iv172, 4
  %77 = getelementptr inbounds nuw i64, ptr %1, i64 %76
  %78 = load i64, ptr %77, align 8, !tbaa !3
  %79 = getelementptr inbounds nuw [4 x i64], ptr %5, i64 0, i64 %69
  %80 = load i64, ptr %79, align 8, !tbaa !3
  %81 = zext i64 %78 to i128
  %82 = zext i64 %80 to i128
  %83 = mul nuw i128 %82, %81
  %84 = add i128 %83, %.2143
  %indvars.iv.next173 = add nuw nsw i64 %indvars.iv172, 1
  %indvars.iv.next170 = add nuw nsw i64 %indvars.iv169, 1
  %exitcond177.not = icmp eq i64 %indvars.iv.next173, 4
  br i1 %exitcond177.not, label %._crit_edge, label %55, !llvm.loop !10

._crit_edge:                                      ; preds = %55, %.preheader
  %.1102.lcssa = phi i128 [ %37, %.preheader ], [ %65, %55 ]
  %.2100.lcssa = phi i128 [ %45, %.preheader ], [ %75, %55 ]
  %.2.lcssa = phi i128 [ %54, %.preheader ], [ %84, %55 ]
  %85 = sub i128 %.2100.lcssa, %.1102.lcssa
  %86 = add i128 %.2.lcssa, %.1102.lcssa
  %87 = trunc i128 %86 to i64
  %88 = and i64 %87, 72057594037927935
  %89 = getelementptr inbounds nuw i64, ptr %0, i64 %indvars.iv161
  store i64 %88, ptr %89, align 8, !tbaa !3
  %90 = trunc i128 %85 to i64
  %91 = and i64 %90, 72057594037927935
  %92 = or disjoint i64 %indvars.iv161, 4
  %93 = getelementptr inbounds nuw i64, ptr %0, i64 %92
  store i64 %91, ptr %93, align 8, !tbaa !3
  %94 = lshr i128 %86, 56
  %95 = lshr i128 %85, 56
  %indvars.iv.next162 = add nuw nsw i64 %indvars.iv161, 1
  %indvars.iv.next164 = add nuw nsw i64 %indvars.iv163, 1
  %exitcond181.not = icmp eq i64 %indvars.iv.next162, 4
  br i1 %exitcond181.not, label %96, label %.preheader132, !llvm.loop !11

96:                                               ; preds = %._crit_edge
  %97 = add nuw nsw i128 %94, %95
  %98 = getelementptr inbounds nuw i8, ptr %0, i64 32
  %99 = load i64, ptr %98, align 8, !tbaa !3
  %100 = zext i64 %99 to i128
  %101 = add nuw nsw i128 %97, %100
  %102 = load i64, ptr %0, align 8, !tbaa !3
  %103 = zext i64 %102 to i128
  %104 = add nuw nsw i128 %95, %103
  %105 = trunc i128 %101 to i64
  %106 = and i64 %105, 72057594037927935
  store i64 %106, ptr %98, align 8, !tbaa !3
  %107 = trunc i128 %104 to i64
  %108 = and i64 %107, 72057594037927935
  store i64 %108, ptr %0, align 8, !tbaa !3
  %109 = lshr i128 %101, 56
  %110 = lshr i128 %104, 56
  %111 = trunc nuw nsw i128 %109 to i64
  %112 = getelementptr inbounds nuw i8, ptr %0, i64 40
  %113 = load i64, ptr %112, align 8, !tbaa !3
  %114 = add i64 %113, %111
  store i64 %114, ptr %112, align 8, !tbaa !3
  %115 = trunc nuw nsw i128 %110 to i64
  %116 = getelementptr inbounds nuw i8, ptr %0, i64 8
  %117 = load i64, ptr %116, align 8, !tbaa !3
  %118 = add i64 %117, %115
  store i64 %118, ptr %116, align 8, !tbaa !3
  call void @llvm.lifetime.end.p0(i64 32, ptr nonnull %6) #2
  call void @llvm.lifetime.end.p0(i64 32, ptr nonnull %5) #2
  call void @llvm.lifetime.end.p0(i64 32, ptr nonnull %4) #2
  ret void
}